; Function Attrs: nounwind uwtable
define noundef ptr @ggml_sin_inplace(ptr noundef captures(none) %0, ptr noundef %1) local_unnamed_addr #4 {
  %3 = load i32, ptr %1, align 8, !tbaa !40
  %4 = getelementptr inbounds nuw i8, ptr %1, i64 16
  %5 = tail call fastcc ptr @ggml_new_tensor_impl(ptr noundef %0, i32 noundef %3, i32 noundef 4, ptr noundef nonnull %4, ptr noundef nonnull %1, i64 noundef 0)
  %6 = getelementptr inbounds nuw i8, ptr %1, i64 256
  %7 = tail call ptr (ptr, ptr, ...) @ggml_format_name(ptr noundef %5, ptr noundef nonnull @.str.23, ptr noundef nonnull %6)
  %8 = getelementptr inbounds nuw i8, ptr %1, i64 48
  %9 = getelementptr inbounds nuw i8, ptr %5, i64 48
  br label %10

10:                                               ; preds = %10, %2
  %indvars.iv.i.i = phi i64 [ 0, %2 ], [ %indvars.iv.next.i.i, %10 ]
  %11 = getelementptr inbounds nuw [4 x i64], ptr %8, i64 0, i64 %indvars.iv.i.i
  %12 = load i64, ptr %11, align 8, !tbaa !39
  %13 = getelementptr inbounds nuw [4 x i64], ptr %9, i64 0, i64 %indvars.iv.i.i
  store i64 %12, ptr %13, align 8, !tbaa !39
  %indvars.iv.next.i.i = add nuw nsw i64 %indvars.iv.i.i, 1
  %exitcond.not.i.i = icmp eq i64 %indvars.iv.next.i.i, 4
  br i1 %exitcond.not.i.i, label %ggml_sin_impl.exit, label %10, !llvm.loop !86

ggml_sin_impl.exit:                               ; preds = %10
  %14 = getelementptr inbounds nuw i8, ptr %5, i64 80
  store i32 11, ptr %14, align 8, !tbaa !55
  %15 = getelementptr inbounds nuw i8, ptr %5, i64 152
  store ptr %1, ptr %15, align 8, !tbaa !81
  ret ptr %5
}